target datalayout = "e-m:e-p270:32:32-p271:32:32-p272:64:64-i64:64-i128:128-f80:128-n8:16:32:64-S128"
target triple = "x86_64-pc-linux-gnu"

%"class.icu_77::UObject" = type { ptr }
%"class.icu_77::UnicodeString" = type { %"class.icu_77::Replaceable", %"union.icu_77::UnicodeString::StackBufferOrFields" }
%"class.icu_77::Replaceable" = type { %"class.icu_77::UObject" }
%"union.icu_77::UnicodeString::StackBufferOrFields" = type { %struct.anon.0, [32 x i8] }
%struct.anon.0 = type { i16, i32, i32, ptr }
%"class.icu_77::ConstChar16Ptr" = type { ptr }

; Function Attrs: inlinehint mustprogress nounwind uwtable
define linkonce_odr void @_ZN6icu_7714ConstChar16PtrD2Ev(ptr noundef nonnull align 8 dereferenceable(8) %0) unnamed_addr #4 comdat align 2 {
  %2 = alloca ptr, align 8
  store ptr %0, ptr %2, align 8, !tbaa !25
  %3 = load ptr, ptr %2, align 8
  %4 = getelementptr inbounds nuw %"class.icu_77::ConstChar16Ptr", ptr %3, i32 0, i32 0
  %5 = load ptr, ptr %4, align 8, !tbaa !27
  call void asm sideeffect "", "rm,~{memory},~{dirflag},~{fpsr},~{flags}"(ptr %5) #7, !srcloc !29
  ret void
}

; Function Attrs: inlinehint mustprogress nounwind uwtable
define linkonce_odr void @_ZN6icu_7714ConstChar16PtrC2EPKDs(ptr noundef nonnull align 8 dereferenceable(8) %0, ptr noundef %1) unnamed_addr #4 comdat align 2 {
  %3 = alloca ptr, align 8
  %4 = alloca ptr, align 8
  store ptr %0, ptr %3, align 8, !tbaa !25
  store ptr %1, ptr %4, align 8, !tbaa !24
  %5 = load ptr, ptr %3, align 8
  %6 = getelementptr inbounds nuw %"class.icu_77::ConstChar16Ptr", ptr %5, i32 0, i32 0
  %7 = load ptr, ptr %4, align 8, !tbaa !24
  store ptr %7, ptr %6, align 8, !tbaa !27
  ret void
}

; Function Attrs: mustprogress uwtable
define void @uset_retainAllCodePoints_77(ptr noundef %0, ptr noundef %1, i32 noundef %2) #0 personality ptr @__gxx_personality_v0 {
  %4 = alloca ptr, align 8
  %5 = alloca ptr, align 8
  %6 = alloca i32, align 4
  %7 = alloca %"class.icu_77::UnicodeString", align 8
  %8 = alloca %"class.icu_77::ConstChar16Ptr", align 8
  %9 = alloca ptr, align 8
  %10 = alloca i32, align 4
  store ptr %0, ptr %4, align 8, !tbaa !7
  store ptr %1, ptr %5, align 8, !tbaa !24
  store i32 %2, ptr %6, align 4, !tbaa !3
  call void @llvm.lifetime.start.p0(i64 64, ptr %7) #7
  %11 = load i32, ptr %6, align 4, !tbaa !3
  %12 = icmp eq i32 %11, -1
  %13 = zext i1 %12 to i8
  %14 = load ptr, ptr %5, align 8, !tbaa !24
  call void @_ZN6icu_7714ConstChar16PtrC2EPKDs(ptr noundef nonnull align 8 dereferenceable(8) %8, ptr noundef %14)
  %15 = load i32, ptr %6, align 4, !tbaa !3
  invoke void @_ZN6icu_7713UnicodeStringC1EaNS_14ConstChar16PtrEi(ptr noundef nonnull align 8 dereferenceable(64) %7, i8 noundef signext %13, ptr noundef %8, i32 noundef %15)
          to label %16 unwind label %20

16:                                               ; preds = %3
  call void @_ZN6icu_7714ConstChar16PtrD2Ev(ptr noundef nonnull align 8 dereferenceable(8) %8) #7
  %17 = load ptr, ptr %4, align 8, !tbaa !7
  %18 = invoke noundef nonnull align 8 dereferenceable(200) ptr @_ZN6icu_7710UnicodeSet9retainAllERKNS_13UnicodeStringE(ptr noundef nonnull align 8 dereferenceable(200) %17, ptr noundef nonnull align 8 dereferenceable(64) %7)
          to label %19 unwind label %24

19:                                               ; preds = %16
  call void @_ZN6icu_7713UnicodeStringD1Ev(ptr noundef nonnull align 8 dereferenceable(64) %7) #7
  call void @llvm.lifetime.end.p0(i64 64, ptr %7) #7
  ret void

20:                                               ; preds = %3
  %21 = landingpad { ptr, i32 }
          cleanup
  %22 = extractvalue { ptr, i32 } %21, 0
  store ptr %22, ptr %9, align 8
  %23 = extractvalue { ptr, i32 } %21, 1
  store i32 %23, ptr %10, align 4
  call void @_ZN6icu_7714ConstChar16PtrD2Ev(ptr noundef nonnull align 8 dereferenceable(8) %8) #7
  br label %28

24:                                               ; preds = %16
  %25 = landingpad { ptr, i32 }
          cleanup
  %26 = extractvalue { ptr, i32 } %25, 0
  store ptr %26, ptr %9, align 8
  %27 = extractvalue { ptr, i32 } %25, 1
  store i32 %27, ptr %10, align 4
  call void @_ZN6icu_7713UnicodeStringD1Ev(ptr noundef nonnull align 8 dereferenceable(64) %7) #7
  br label %28

28:                                               ; preds = %24, %20
  call void @llvm.lifetime.end.p0(i64 64, ptr %7) #7
  br label %29

29:                                               ; preds = %28
  %30 = load ptr, ptr %9, align 8
  %31 = load i32, ptr %10, align 4
  %32 = insertvalue { ptr, i32 } poison, ptr %30, 0
  %33 = insertvalue { ptr, i32 } %32, i32 %31, 1
  resume { ptr, i32 } %33
}